target datalayout = "e-m:e-p270:32:32-p271:32:32-p272:64:64-i64:64-i128:128-f80:128-n8:16:32:64-S128"
target triple = "x86_64-pc-linux-gnu"

%"class.clang::SourceLocation" = type { i32 }
%"class.clang::FileID" = type { i32 }
%"class.clang::FullSourceLoc" = type { %"class.clang::SourceLocation", ptr }
%"struct.std::pair" = type { %"class.clang::FileID", i32 }

; Function Attrs: mustprogress nounwind uwtable
define linkonce_odr hidden noundef i32 @_ZNK5clang13SourceManager13getFileOffsetENS_14SourceLocationE(ptr noundef nonnull align 8 dereferenceable(696) %0, i32 %1) #0 comdat align 2 {
  %3 = alloca %"class.clang::SourceLocation", align 4
  %4 = alloca ptr, align 8
  %5 = alloca %"struct.std::pair", align 4
  %6 = alloca %"class.clang::SourceLocation", align 4
  %7 = getelementptr inbounds nuw %"class.clang::SourceLocation", ptr %3, i32 0, i32 0
  store i32 %1, ptr %7, align 4
  store ptr %0, ptr %4, align 8
  %8 = load ptr, ptr %4, align 8
  call void @llvm.memcpy.p0.p0.i64(ptr align 4 %6, ptr align 4 %3, i64 4, i1 false)
  %9 = getelementptr inbounds nuw %"class.clang::SourceLocation", ptr %6, i32 0, i32 0
  %10 = load i32, ptr %9, align 4
  %11 = call i64 @_ZNK5clang13SourceManager16getDecomposedLocENS_14SourceLocationE(ptr noundef nonnull align 8 dereferenceable(696) %8, i32 %10)
  store i64 %11, ptr %5, align 4
  %12 = getelementptr inbounds nuw %"struct.std::pair", ptr %5, i32 0, i32 1
  %13 = load i32, ptr %12, align 4
  ret i32 %13
}

; Function Attrs: mustprogress nounwind uwtable
define dso_local noundef i32 @_ZNK5clang13FullSourceLoc13getFileOffsetEv(ptr noundef nonnull align 8 dereferenceable(16) %0) #0 align 2 {
  %2 = alloca ptr, align 8
  %3 = alloca %"class.clang::SourceLocation", align 4
  store ptr %0, ptr %2, align 8
  %4 = load ptr, ptr %2, align 8
  %5 = getelementptr inbounds nuw %"class.clang::FullSourceLoc", ptr %4, i32 0, i32 1
  %6 = load ptr, ptr %5, align 8
  call void @llvm.memcpy.p0.p0.i64(ptr align 4 %3, ptr align 8 %4, i64 4, i1 false)
  %7 = getelementptr inbounds nuw %"class.clang::SourceLocation", ptr %3, i32 0, i32 0
  %8 = load i32, ptr %7, align 4
  %9 = call noundef i32 @_ZNK5clang13SourceManager13getFileOffsetENS_14SourceLocationE(ptr noundef nonnull align 8 dereferenceable(696) %6, i32 %8)
  ret i32 %9
}

; Function Attrs: mustprogress nounwind uwtable
define dso_local noundef i32 @_ZNK5clang13FullSourceLoc13getLineNumberEPb(ptr noundef nonnull align 8 dereferenceable(16) %0, ptr noundef %1) #0 align 2 {
  %3 = alloca ptr, align 8
  %4 = alloca ptr, align 8
  %5 = alloca %"class.clang::FileID", align 4
  store ptr %0, ptr %3, align 8
  store ptr %1, ptr %4, align 8
  %6 = load ptr, ptr %3, align 8
  %7 = getelementptr inbounds nuw %"class.clang::FullSourceLoc", ptr %6, i32 0, i32 1
  %8 = load ptr, ptr %7, align 8
  %9 = call i32 @_ZNK5clang13FullSourceLoc9getFileIDEv(ptr noundef nonnull align 8 dereferenceable(16) %6)
  %10 = getelementptr inbounds nuw %"class.clang::FileID", ptr %5, i32 0, i32 0
  store i32 %9, ptr %10, align 4
  %11 = call noundef i32 @_ZNK5clang13FullSourceLoc13getFileOffsetEv(ptr noundef nonnull align 8 dereferenceable(16) %6)
  %12 = load ptr, ptr %4, align 8
  %13 = getelementptr inbounds nuw %"class.clang::FileID", ptr %5, i32 0, i32 0
  %14 = load i32, ptr %13, align 4
  %15 = call noundef i32 @_ZNK5clang13SourceManager13getLineNumberENS_6FileIDEjPb(ptr noundef nonnull align 8 dereferenceable(696) %8, i32 %14, i32 noundef %11, ptr noundef %12)
  ret i32 %15
}