; Function Attrs: mustprogress nounwind uwtable
define dso_local noundef i32 @_ZNK5clang13FullSourceLoc13getLineNumberEPb(ptr nocapture noundef nonnull readonly align 8 dereferenceable(16) %0, ptr noundef %1) local_unnamed_addr #0 align 2 {
  %3 = getelementptr inbounds nuw i8, ptr %0, i64 8
  %4 = load ptr, ptr %3, align 8
  %5 = tail call i32 @_ZNK5clang13FullSourceLoc9getFileIDEv(ptr noundef nonnull align 8 dereferenceable(16) %0)
  %6 = load ptr, ptr %3, align 8
  %.sroa.0.0.copyload.i = load i32, ptr %0, align 8
  %7 = tail call i64 @_ZNK5clang13SourceManager16getDecomposedLocENS_14SourceLocationE(ptr noundef nonnull align 8 dereferenceable(696) %6, i32 %.sroa.0.0.copyload.i)
  %.sroa.1.0.extract.shift.i.i = lshr i64 %7, 32
  %.sroa.1.0.extract.trunc.i.i = trunc nuw i64 %.sroa.1.0.extract.shift.i.i to i32
  %8 = tail call noundef i32 @_ZNK5clang13SourceManager13getLineNumberENS_6FileIDEjPb(ptr noundef nonnull align 8 dereferenceable(696) %4, i32 %5, i32 noundef %.sroa.1.0.extract.trunc.i.i, ptr noundef %1) #10
  ret i32 %8
}